target datalayout = "e-m:e-p270:32:32-p271:32:32-p272:64:64-i64:64-i128:128-f80:128-n8:16:32:64-S128"
target triple = "x86_64-unknown-linux-gnu"

%"class.icu_75::(anonymous namespace)::MaxExpSink" = type { %"class.icu_75::ContractionsAndExpansions::CESink", ptr, ptr }
%"class.icu_75::ContractionsAndExpansions::CESink" = type { ptr }

; Function Attrs: mustprogress nounwind uwtable
define internal noundef i32 @_ZN6icu_7512_GLOBAL__N_112getFirstHalfEjj(i32 noundef %p, i32 noundef %lower32) #0 {
entry:
  %p.addr = alloca i32, align 4
  %lower32.addr = alloca i32, align 4
  store i32 %p, ptr %p.addr, align 4
  store i32 %lower32, ptr %lower32.addr, align 4
  %0 = load i32, ptr %p.addr, align 4
  %and = and i32 %0, -65536
  %1 = load i32, ptr %lower32.addr, align 4
  %shr = lshr i32 %1, 16
  %and1 = and i32 %shr, 65280
  %or = or i32 %and, %and1
  %2 = load i32, ptr %lower32.addr, align 4
  %shr2 = lshr i32 %2, 8
  %and3 = and i32 %shr2, 255
  %or4 = or i32 %or, %and3
  ret i32 %or4
}

; Function Attrs: mustprogress nounwind uwtable
define internal noundef i32 @_ZN6icu_7512_GLOBAL__N_113getSecondHalfEjj(i32 noundef %p, i32 noundef %lower32) #0 {
entry:
  %p.addr = alloca i32, align 4
  %lower32.addr = alloca i32, align 4
  store i32 %p, ptr %p.addr, align 4
  store i32 %lower32, ptr %lower32.addr, align 4
  %0 = load i32, ptr %p.addr, align 4
  %shl = shl i32 %0, 16
  %1 = load i32, ptr %lower32.addr, align 4
  %shr = lshr i32 %1, 8
  %and = and i32 %shr, 65280
  %or = or i32 %shl, %and
  %2 = load i32, ptr %lower32.addr, align 4
  %and1 = and i32 %2, 63
  %or2 = or i32 %or, %and1
  ret i32 %or2
}

; Function Attrs: mustprogress nounwind uwtable
define internal noundef signext i8 @_ZN6icu_7512_GLOBAL__N_115ceNeedsTwoPartsEl(i64 noundef %ce) #0 {
entry:
  %ce.addr = alloca i64, align 8
  store i64 %ce, ptr %ce.addr, align 8
  %0 = load i64, ptr %ce.addr, align 8
  %and = and i64 %0, 281470698455103
  %cmp = icmp ne i64 %and, 0
  %conv = zext i1 %cmp to i8
  ret i8 %conv
}

; Function Attrs: mustprogress uwtable
define internal void @_ZN6icu_7512_GLOBAL__N_110MaxExpSink15handleExpansionEPKli(ptr noundef nonnull align 8 dereferenceable(24) %this, ptr noundef %ces, i32 noundef %length) unnamed_addr #1 align 2 {
entry:
  %this.addr = alloca ptr, align 8
  %ces.addr = alloca ptr, align 8
  %length.addr = alloca i32, align 4
  %count = alloca i32, align 4
  %i = alloca i32, align 4
  %ce = alloca i64, align 8
  %p = alloca i32, align 4
  %lower32 = alloca i32, align 4
  %lastHalf = alloca i32, align 4
  store ptr %this, ptr %this.addr, align 8
  store ptr %ces, ptr %ces.addr, align 8
  store i32 %length, ptr %length.addr, align 4
  %this1 = load ptr, ptr %this.addr, align 8
  %0 = load i32, ptr %length.addr, align 4
  %cmp = icmp sle i32 %0, 1
  br i1 %cmp, label %if.then, label %if.end

if.then:                                          ; preds = %entry
  br label %if.end16

if.end:                                           ; preds = %entry
  store i32 0, ptr %count, align 4
  store i32 0, ptr %i, align 4
  br label %for.cond

for.cond:                                         ; preds = %for.inc, %if.end
  %1 = load i32, ptr %i, align 4
  %2 = load i32, ptr %length.addr, align 4
  %cmp2 = icmp slt i32 %1, %2
  br i1 %cmp2, label %for.body, label %for.end

for.body:                                         ; preds = %for.cond
  %3 = load ptr, ptr %ces.addr, align 8
  %4 = load i32, ptr %i, align 4
  %idxprom = sext i32 %4 to i64
  %arrayidx = getelementptr inbounds i64, ptr %3, i64 %idxprom
  %5 = load i64, ptr %arrayidx, align 8
  %call = call noundef signext i8 @_ZN6icu_7512_GLOBAL__N_115ceNeedsTwoPartsEl(i64 noundef %5)
  %tobool = icmp ne i8 %call, 0
  %cond = select i1 %tobool, i32 2, i32 1
  %6 = load i32, ptr %count, align 4
  %add = add nsw i32 %6, %cond
  store i32 %add, ptr %count, align 4
  br label %for.inc

for.inc:                                          ; preds = %for.body
  %7 = load i32, ptr %i, align 4
  %inc = add nsw i32 %7, 1
  store i32 %inc, ptr %i, align 4
  br label %for.cond, !llvm.loop !8

for.end:                                          ; preds = %for.cond
  %8 = load ptr, ptr %ces.addr, align 8
  %9 = load i32, ptr %length.addr, align 4
  %sub = sub nsw i32 %9, 1
  %idxprom3 = sext i32 %sub to i64
  %arrayidx4 = getelementptr inbounds i64, ptr %8, i64 %idxprom3
  %10 = load i64, ptr %arrayidx4, align 8
  store i64 %10, ptr %ce, align 8
  %11 = load i64, ptr %ce, align 8
  %shr = ashr i64 %11, 32
  %conv = trunc i64 %shr to i32
  store i32 %conv, ptr %p, align 4
  %12 = load i64, ptr %ce, align 8
  %conv5 = trunc i64 %12 to i32
  store i32 %conv5, ptr %lower32, align 4
  %13 = load i32, ptr %p, align 4
  %14 = load i32, ptr %lower32, align 4
  %call6 = call noundef i32 @_ZN6icu_7512_GLOBAL__N_113getSecondHalfEjj(i32 noundef %13, i32 noundef %14)
  store i32 %call6, ptr %lastHalf, align 4
  %15 = load i32, ptr %lastHalf, align 4
  %cmp7 = icmp eq i32 %15, 0
  br i1 %cmp7, label %if.then8, label %if.else

if.then8:                                         ; preds = %for.end
  %16 = load i32, ptr %p, align 4
  %17 = load i32, ptr %lower32, align 4
  %call9 = call noundef i32 @_ZN6icu_7512_GLOBAL__N_112getFirstHalfEjj(i32 noundef %16, i32 noundef %17)
  store i32 %call9, ptr %lastHalf, align 4
  br label %if.end10

if.else:                                          ; preds = %for.end
  %18 = load i32, ptr %lastHalf, align 4
  %or = or i32 %18, 192
  store i32 %or, ptr %lastHalf, align 4
  br label %if.end10

if.end10:                                         ; preds = %if.else, %if.then8
  %19 = load i32, ptr %count, align 4
  %maxExpansions = getelementptr inbounds %"class.icu_75::(anonymous namespace)::MaxExpSink", ptr %this1, i32 0, i32 1
  %20 = load ptr, ptr %maxExpansions, align 8
  %21 = load i32, ptr %lastHalf, align 4
  %call11 = call i32 @uhash_igeti_75(ptr noundef %20, i32 noundef %21)
  %cmp12 = icmp sgt i32 %19, %call11
  br i1 %cmp12, label %if.then13, label %if.end16

if.then13:                                        ; preds = %if.end10
  %maxExpansions14 = getelementptr inbounds %"class.icu_75::(anonymous namespace)::MaxExpSink", ptr %this1, i32 0, i32 1
  %22 = load ptr, ptr %maxExpansions14, align 8
  %23 = load i32, ptr %lastHalf, align 4
  %24 = load i32, ptr %count, align 4
  %errorCode = getelementptr inbounds %"class.icu_75::(anonymous namespace)::MaxExpSink", ptr %this1, i32 0, i32 2
  %25 = load ptr, ptr %errorCode, align 8
  %call15 = call i32 @uhash_iputi_75(ptr noundef %22, i32 noundef %23, i32 noundef %24, ptr noundef %25)
  br label %if.end16

if.end16:                                         ; preds = %if.then13, %if.end10, %if.then
  ret void
}