; Function Attrs: mustprogress uwtable
define internal void @_ZN6icu_7512_GLOBAL__N_110MaxExpSink15handleExpansionEPKli(ptr nocapture noundef nonnull readonly align 8 dereferenceable(24) %this, ptr nocapture noundef readonly %ces, i32 noundef %length) unnamed_addr #1 align 2 {
entry:
  %cmp = icmp slt i32 %length, 2
  br i1 %cmp, label %if.end16, label %for.body.preheader

for.body.preheader:                               ; preds = %entry
  %wide.trip.count = zext nneg i32 %length to i64
  br label %for.body

for.body:                                         ; preds = %for.body.preheader, %for.body
  %indvars.iv = phi i64 [ 0, %for.body.preheader ], [ %indvars.iv.next, %for.body ]
  %count.020 = phi i32 [ 0, %for.body.preheader ], [ %add, %for.body ]
  %arrayidx = getelementptr inbounds i64, ptr %ces, i64 %indvars.iv
  %0 = load i64, ptr %arrayidx, align 8
  %and.i = and i64 %0, 281470698455103
  %cmp.i.not = icmp eq i64 %and.i, 0
  %cond = select i1 %cmp.i.not, i32 1, i32 2
  %add = add nuw nsw i32 %cond, %count.020
  %indvars.iv.next = add nuw nsw i64 %indvars.iv, 1
  %exitcond.not = icmp eq i64 %indvars.iv.next, %wide.trip.count
  br i1 %exitcond.not, label %for.end, label %for.body, !llvm.loop !8

for.end:                                          ; preds = %for.body
  %1 = getelementptr i64, ptr %ces, i64 %wide.trip.count
  %arrayidx4 = getelementptr i8, ptr %1, i64 -8
  %2 = load i64, ptr %arrayidx4, align 8
  %shr = lshr i64 %2, 32
  %conv = trunc i64 %shr to i32
  %conv5 = trunc i64 %2 to i32
  %shl.i = shl i32 %conv, 16
  %shr.i = lshr i32 %conv5, 8
  %and.i14 = and i32 %shr.i, 65280
  %or.i = or disjoint i32 %and.i14, %shl.i
  %and1.i = and i32 %conv5, 63
  %or2.i = or disjoint i32 %or.i, %and1.i
  %cmp7 = icmp eq i32 %or2.i, 0
  br i1 %cmp7, label %if.then8, label %if.else

if.then8:                                         ; preds = %for.end
  %and.i15 = and i32 %conv, -65536
  %shr.i16 = lshr i32 %conv5, 16
  %and1.i17 = and i32 %shr.i16, 65280
  %or.i18 = or disjoint i32 %and1.i17, %and.i15
  %and3.i = and i32 %shr.i, 255
  %or4.i = or disjoint i32 %or.i18, %and3.i
  br label %if.end10

if.else:                                          ; preds = %for.end
  %or = or disjoint i32 %or2.i, 192
  br label %if.end10

if.end10:                                         ; preds = %if.else, %if.then8
  %lastHalf.0 = phi i32 [ %or4.i, %if.then8 ], [ %or, %if.else ]
  %maxExpansions = getelementptr inbounds i8, ptr %this, i64 8
  %3 = load ptr, ptr %maxExpansions, align 8
  %call11 = tail call i32 @uhash_igeti_75(ptr noundef %3, i32 noundef %lastHalf.0)
  %cmp12 = icmp sgt i32 %add, %call11
  br i1 %cmp12, label %if.then13, label %if.end16

if.then13:                                        ; preds = %if.end10
  %4 = load ptr, ptr %maxExpansions, align 8
  %errorCode = getelementptr inbounds i8, ptr %this, i64 16
  %5 = load ptr, ptr %errorCode, align 8
  %call15 = tail call i32 @uhash_iputi_75(ptr noundef %4, i32 noundef %lastHalf.0, i32 noundef %add, ptr noundef %5)
  br label %if.end16

if.end16:                                         ; preds = %entry, %if.then13, %if.end10
  ret void
}